target datalayout = "e-m:e-p270:32:32-p271:32:32-p272:64:64-i64:64-i128:128-f80:128-n8:16:32:64-S128"
target triple = "x86_64-pc-linux-gnu"

%struct.nstime_t = type { i64, i32 }
%struct._packet_info = type { ptr, ptr, i32, i32, %struct.nstime_t, %struct.nstime_t, %struct.nstime_t, i8, ptr, ptr, ptr, ptr, %struct._address, %struct._address, %struct._address, %struct._address, %struct._address, %struct._address, i32, ptr, i8, [3 x i8], %struct.anon, i32, i32, i32, i32, ptr, i8, ptr, ptr, i16, i16, i32, i32, i16, i32, i32, ptr, ptr, ptr, i8, i8, i16, i16, i16, i32, i16, i16, ptr, ptr, ptr, ptr, ptr, i32, i32 }
%struct._address = type { i32, i32, ptr, ptr }
%struct.anon = type { i8, [3 x i8] }
%struct.ntp_conv_info_t = type { ptr }

@.str.318 = private unnamed_addr constant [4 x i8] c"NTP\00", align 1
@ett_ntp = internal global i32 0, align 4
@proto_ntp = internal global i32 0, align 4
@nts_cookie = internal global ptr null, align 8
@nts_tvb_uid_offset = internal global i32 0, align 4
@nts_tvb_uid_length = internal global i32 0, align 4
@nts_aad_start = internal global i32 0, align 4
@.str.843 = private unnamed_addr constant [7 x i8] c"%s, %s\00", align 1
@.str.844 = private unnamed_addr constant [16 x i8] c"Unknown version\00", align 1
@.str.845 = private unnamed_addr constant [8 x i8] c"Unknown\00", align 1
@.str.846 = private unnamed_addr constant [10 x i8] c" (%s, %s)\00", align 1

; Function Attrs: null_pointer_is_valid sspstrong uwtable
define internal i32 @dissect_ntp(ptr noundef %0, ptr noundef %1, ptr noundef %2, ptr noundef %3) #0 {
  %5 = alloca ptr, align 8
  %6 = alloca ptr, align 8
  %7 = alloca ptr, align 8
  %8 = alloca ptr, align 8
  %9 = alloca ptr, align 8
  %10 = alloca ptr, align 8
  %11 = alloca i8, align 1
  %12 = alloca ptr, align 8
  %13 = alloca ptr, align 8
  %14 = alloca ptr, align 8
  store ptr %0, ptr %5, align 8
  store ptr %1, ptr %6, align 8
  store ptr %2, ptr %7, align 8
  store ptr %3, ptr %8, align 8
  call void @llvm.lifetime.start.p0(i64 8, ptr %9) #10
  call void @llvm.lifetime.start.p0(i64 8, ptr %10) #10
  store ptr null, ptr %10, align 8
  call void @llvm.lifetime.start.p0(i64 1, ptr %11) #10
  call void @llvm.lifetime.start.p0(i64 8, ptr %12) #10
  call void @llvm.lifetime.start.p0(i64 8, ptr %13) #10
  call void @llvm.lifetime.start.p0(i64 8, ptr %14) #10
  %15 = load ptr, ptr %6, align 8
  %16 = getelementptr inbounds nuw %struct._packet_info, ptr %15, i32 0, i32 1
  %17 = load ptr, ptr %16, align 8
  call void @col_set_str(ptr noundef %17, i32 noundef 35, ptr noundef @.str.318)
  %18 = load ptr, ptr %6, align 8
  %19 = getelementptr inbounds nuw %struct._packet_info, ptr %18, i32 0, i32 1
  %20 = load ptr, ptr %19, align 8
  call void @col_clear(ptr noundef %20, i32 noundef 25)
  store ptr null, ptr @nts_cookie, align 8
  store i32 0, ptr @nts_tvb_uid_offset, align 4
  store i32 0, ptr @nts_tvb_uid_length, align 4
  store i32 0, ptr @nts_aad_start, align 4
  %21 = load ptr, ptr %5, align 8
  %22 = call zeroext i8 @tvb_get_uint8(ptr noundef %21, i32 noundef 0)
  store i8 %22, ptr %11, align 1
  %23 = load i8, ptr %11, align 1
  %24 = zext i8 %23 to i32
  %25 = and i32 %24, 7
  switch i32 %25, label %26 [
    i32 6, label %27
    i32 7, label %28
  ]

26:                                               ; preds = %4
  store ptr @dissect_ntp_std, ptr %14, align 8
  br label %29

27:                                               ; preds = %4
  store ptr @dissect_ntp_ctrl, ptr %14, align 8
  br label %29

28:                                               ; preds = %4
  store ptr @dissect_ntp_priv, ptr %14, align 8
  br label %29

29:                                               ; preds = %28, %27, %26
  %30 = load ptr, ptr %7, align 8
  %31 = load i32, ptr @proto_ntp, align 4
  %32 = load ptr, ptr %5, align 8
  %33 = call ptr @proto_tree_add_item(ptr noundef %30, i32 noundef %31, ptr noundef %32, i32 noundef 0, i32 noundef -1, i32 noundef 0)
  store ptr %33, ptr %10, align 8
  %34 = load ptr, ptr %10, align 8
  %35 = load i32, ptr @ett_ntp, align 4
  %36 = call ptr @proto_item_add_subtree(ptr noundef %34, i32 noundef %35)
  store ptr %36, ptr %9, align 8
  %37 = load ptr, ptr %6, align 8
  %38 = getelementptr inbounds nuw %struct._packet_info, ptr %37, i32 0, i32 1
  %39 = load ptr, ptr %38, align 8
  %40 = load i8, ptr %11, align 1
  %41 = zext i8 %40 to i32
  %42 = and i32 %41, 56
  %43 = ashr i32 %42, 3
  %44 = call ptr @val_to_str_const(i32 noundef %43, ptr noundef @ver_nums, ptr noundef @.str.844)
  %45 = load i8, ptr %11, align 1
  %46 = zext i8 %45 to i32
  %47 = and i32 %46, 7
  %48 = call ptr @val_to_str_const(i32 noundef %47, ptr noundef @info_mode_types, ptr noundef @.str.845)
  call void (ptr, i32, ptr, ...) @col_add_fstr(ptr noundef %39, i32 noundef 25, ptr noundef @.str.843, ptr noundef %44, ptr noundef %48)
  %49 = load ptr, ptr %10, align 8
  %50 = load i8, ptr %11, align 1
  %51 = zext i8 %50 to i32
  %52 = and i32 %51, 56
  %53 = ashr i32 %52, 3
  %54 = call ptr @val_to_str_const(i32 noundef %53, ptr noundef @ver_nums, ptr noundef @.str.844)
  %55 = load i8, ptr %11, align 1
  %56 = zext i8 %55 to i32
  %57 = and i32 %56, 7
  %58 = call ptr @val_to_str_const(i32 noundef %57, ptr noundef @info_mode_types, ptr noundef @.str.845)
  call void (ptr, ptr, ...) @proto_item_append_text(ptr noundef %49, ptr noundef @.str.846, ptr noundef %54, ptr noundef %58)
  %59 = load ptr, ptr %6, align 8
  %60 = call ptr @find_or_create_conversation(ptr noundef %59)
  store ptr %60, ptr %12, align 8
  %61 = load ptr, ptr %12, align 8
  %62 = load i32, ptr @proto_ntp, align 4
  %63 = call ptr @conversation_get_proto_data(ptr noundef %61, i32 noundef %62)
  store ptr %63, ptr %13, align 8
  %64 = load ptr, ptr %13, align 8
  %65 = icmp ne ptr %64, null
  br i1 %65, label %76, label %66

66:                                               ; preds = %29
  %67 = call ptr @wmem_file_scope()
  %68 = call noalias ptr @wmem_alloc(ptr noundef %67, i64 noundef 8) #11
  store ptr %68, ptr %13, align 8
  %69 = call ptr @wmem_file_scope()
  %70 = call noalias ptr @wmem_tree_new(ptr noundef %69)
  %71 = load ptr, ptr %13, align 8
  %72 = getelementptr inbounds nuw %struct.ntp_conv_info_t, ptr %71, i32 0, i32 0
  store ptr %70, ptr %72, align 8
  %73 = load ptr, ptr %12, align 8
  %74 = load i32, ptr @proto_ntp, align 4
  %75 = load ptr, ptr %13, align 8
  call void @conversation_add_proto_data(ptr noundef %73, i32 noundef %74, ptr noundef %75)
  br label %76

76:                                               ; preds = %66, %29
  %77 = load ptr, ptr %14, align 8
  %78 = load ptr, ptr %5, align 8
  %79 = load ptr, ptr %6, align 8
  %80 = load ptr, ptr %9, align 8
  %81 = load ptr, ptr %13, align 8
  call void %77(ptr noundef %78, ptr noundef %79, ptr noundef %80, ptr noundef %81)
  %82 = load ptr, ptr %5, align 8
  %83 = call i32 @tvb_captured_length(ptr noundef %82)
  call void @llvm.lifetime.end.p0(i64 8, ptr %14) #10
  call void @llvm.lifetime.end.p0(i64 8, ptr %13) #10
  call void @llvm.lifetime.end.p0(i64 8, ptr %12) #10
  call void @llvm.lifetime.end.p0(i64 1, ptr %11) #10
  call void @llvm.lifetime.end.p0(i64 8, ptr %10) #10
  call void @llvm.lifetime.end.p0(i64 8, ptr %9) #10
  ret i32 %83
}