; Function Attrs: null_pointer_is_valid sspstrong uwtable
define internal i32 @dissect_ntp(ptr noundef %0, ptr noundef %1, ptr noundef %2, ptr readnone captures(none) %3) #0 {
  %5 = getelementptr inbounds nuw i8, ptr %1, i64 8
  %6 = load ptr, ptr %5, align 8
  tail call void @col_set_str(ptr noundef %6, i32 noundef 35, ptr noundef nonnull @.str.318)
  %7 = load ptr, ptr %5, align 8
  tail call void @col_clear(ptr noundef %7, i32 noundef 25)
  store ptr null, ptr @nts_cookie, align 8
  store i32 0, ptr @nts_tvb_uid_offset, align 4
  store i32 0, ptr @nts_tvb_uid_length, align 4
  %8 = tail call zeroext i8 @tvb_get_uint8(ptr noundef %0, i32 noundef 0)
  %9 = zext i8 %8 to i32
  %10 = and i32 %9, 7
  %11 = load i32, ptr @proto_ntp, align 4
  %12 = tail call ptr @proto_tree_add_item(ptr noundef %2, i32 noundef %11, ptr noundef %0, i32 noundef 0, i32 noundef -1, i32 noundef 0)
  %13 = load i32, ptr @ett_ntp, align 4
  %14 = tail call ptr @proto_item_add_subtree(ptr noundef %12, i32 noundef %13)
  %15 = load ptr, ptr %5, align 8
  %16 = lshr i32 %9, 3
  %17 = and i32 %16, 7
  %18 = tail call ptr @val_to_str_const(i32 noundef %17, ptr noundef nonnull @ver_nums, ptr noundef nonnull @.str.844)
  %19 = tail call ptr @val_to_str_const(i32 noundef %10, ptr noundef nonnull @info_mode_types, ptr noundef nonnull @.str.845)
  tail call void (ptr, i32, ptr, ...) @col_add_fstr(ptr noundef %15, i32 noundef 25, ptr noundef nonnull @.str.843, ptr noundef %18, ptr noundef %19)
  %20 = tail call ptr @val_to_str_const(i32 noundef %17, ptr noundef nonnull @ver_nums, ptr noundef nonnull @.str.844)
  %21 = tail call ptr @val_to_str_const(i32 noundef %10, ptr noundef nonnull @info_mode_types, ptr noundef nonnull @.str.845)
  tail call void (ptr, ptr, ...) @proto_item_append_text(ptr noundef %12, ptr noundef nonnull @.str.846, ptr noundef %20, ptr noundef %21)
  %22 = tail call ptr @find_or_create_conversation(ptr noundef %1)
  %23 = load i32, ptr @proto_ntp, align 4
  %24 = tail call ptr @conversation_get_proto_data(ptr noundef %22, i32 noundef %23)
  %.not = icmp eq ptr %24, null
  br i1 %.not, label %25, label %31

25:                                               ; preds = %4
  %26 = tail call ptr @wmem_file_scope()
  %27 = tail call noalias dereferenceable_or_null(8) ptr @wmem_alloc(ptr noundef %26, i64 noundef 8) #10
  %28 = tail call ptr @wmem_file_scope()
  %29 = tail call noalias ptr @wmem_tree_new(ptr noundef %28)
  store ptr %29, ptr %27, align 8
  %30 = load i32, ptr @proto_ntp, align 4
  tail call void @conversation_add_proto_data(ptr noundef %22, i32 noundef %30, ptr noundef %27)
  br label %31

31:                                               ; preds = %25, %4
  %.024 = phi ptr [ %24, %4 ], [ %27, %25 ]
  %switch.selectcmp26 = icmp eq i32 %10, 6
  %switch.selectcmp = icmp eq i32 %10, 7
  %switch.select = select i1 %switch.selectcmp, ptr @dissect_ntp_priv, ptr @dissect_ntp_std
  %switch.select27 = select i1 %switch.selectcmp26, ptr @dissect_ntp_ctrl, ptr %switch.select
  tail call void %switch.select27(ptr noundef %0, ptr noundef %1, ptr noundef %14, ptr noundef %.024), !callees !6
  %32 = tail call i32 @tvb_captured_length(ptr noundef %0)
  ret i32 %32
}